target datalayout = "e-m:e-p270:32:32-p271:32:32-p272:64:64-i64:64-i128:128-f80:128-n8:16:32:64-S128"
target triple = "x86_64-pc-linux-gnu"

%struct.AVCodecContext = type { ptr, i32, i32, ptr, i32, i32, ptr, ptr, ptr, i64, i32, i32, ptr, i32, %struct.AVRational, %struct.AVRational, %struct.AVRational, i32, i32, i32, i32, i32, %struct.AVRational, i32, i32, i32, i32, i32, i32, i32, i32, i32, i32, i32, ptr, ptr, i32, float, float, float, float, float, float, float, float, float, i32, i32, i32, i32, i32, i32, i32, i32, i32, i32, i32, i32, ptr, ptr, ptr, i32, i32, i32, i32, i32, i32, i32, i32, i32, i32, %struct.AVChannelLayout, i32, i32, i32, i32, i32, i32, i32, i32, ptr, i32, i32, i32, float, float, i32, i32, i32, i32, i32, ptr, i64, i64, float, float, i32, i32, ptr, ptr, i32, i32, i32, i32, i32, ptr, ptr, ptr, ptr, i32, i32, [8 x i64], i32, i32, i32, i32, i32, i32, i32, ptr, ptr, i32, i32, i32, i32, i32, i32, i32, i32, i32, i32, ptr, ptr, i32, i32, ptr, ptr, ptr, ptr, i32, i32, i64, i32, i32, i64, ptr, i64, ptr, i32, ptr, i32 }
%struct.AVRational = type { i32, i32 }
%struct.AVChannelLayout = type { i32, i32, %union.anon, ptr }
%union.anon = type { i64 }
%struct.MJpegDecodeContext = type { ptr, ptr, %struct.GetBitContext, i32, i32, i32, ptr, [4 x [64 x i16]], [3 x [4 x %struct.VLC]], [4 x i32], i32, i32, i32, i32, i32, i32, i32, i32, i32, [4 x i8], [4 x i8], i32, i32, i32, i32, i32, i32, i32, i32, i32, i32, i32, i32, i32, i32, i32, i32, i32, [4 x i32], [4 x i32], [4 x i32], [4 x i32], [4 x i32], [4 x i32], [4 x i32], [4 x i32], [4 x i32], [4 x i32], [4 x i32], i32, i32, [4 x i32], [4 x i32], ptr, ptr, i32, [4 x i32], ptr, [64 x i16], [4 x ptr], [4 x ptr], [4 x i64], i32, i32, [64 x i8], %struct.BlockDSPContext, %struct.HpelDSPContext, %struct.IDCTDSPContext, i32, i32, i32, i32, i32, i32, i32, i32, i32, ptr, i32, i32, ptr, ptr, ptr, ptr, i32, i32, ptr, i32, i32, ptr, i64, ptr, i64, [2 x [4 x [16 x i8]]], [2 x [4 x [256 x i8]]], i32, i32, ptr, ptr, [8 x i8] }
%struct.GetBitContext = type { ptr, ptr, i32, i32, i32 }
%struct.VLC = type { i32, ptr, i32, i32 }
%struct.BlockDSPContext = type { ptr, ptr, [2 x ptr] }
%struct.HpelDSPContext = type { [4 x [4 x ptr]], [4 x [4 x ptr]], [4 x [4 x ptr]], [4 x ptr] }
%struct.IDCTDSPContext = type { ptr, ptr, ptr, ptr, ptr, ptr, [64 x i8], i32, i32 }

@.str.86 = private unnamed_addr constant [17 x i8] c"AVID: len:%d %d\0A\00", align 1

; Function Attrs: nounwind uwtable
define internal void @parse_avid(ptr noundef %0, ptr noundef %1, i32 noundef %2) #3 {
  %4 = alloca ptr, align 8
  %5 = alloca ptr, align 8
  %6 = alloca i32, align 4
  store ptr %0, ptr %4, align 8, !tbaa !29
  store ptr %1, ptr %5, align 8, !tbaa !85
  store i32 %2, ptr %6, align 4, !tbaa !57
  %7 = load ptr, ptr %4, align 8, !tbaa !29
  %8 = getelementptr inbounds nuw %struct.MJpegDecodeContext, ptr %7, i32 0, i32 70
  store i32 1, ptr %8, align 8, !tbaa !96
  %9 = load i32, ptr %6, align 4, !tbaa !57
  %10 = icmp sgt i32 %9, 14
  br i1 %10, label %11, label %20

11:                                               ; preds = %3
  %12 = load ptr, ptr %5, align 8, !tbaa !85
  %13 = getelementptr inbounds i8, ptr %12, i64 12
  %14 = load i8, ptr %13, align 1, !tbaa !64
  %15 = zext i8 %14 to i32
  %16 = icmp eq i32 %15, 1
  br i1 %16, label %17, label %20

17:                                               ; preds = %11
  %18 = load ptr, ptr %4, align 8, !tbaa !29
  %19 = getelementptr inbounds nuw %struct.MJpegDecodeContext, ptr %18, i32 0, i32 72
  store i32 1, ptr %19, align 16, !tbaa !62
  br label %20

20:                                               ; preds = %17, %11, %3
  %21 = load i32, ptr %6, align 4, !tbaa !57
  %22 = icmp sgt i32 %21, 14
  br i1 %22, label %23, label %32

23:                                               ; preds = %20
  %24 = load ptr, ptr %5, align 8, !tbaa !85
  %25 = getelementptr inbounds i8, ptr %24, i64 12
  %26 = load i8, ptr %25, align 1, !tbaa !64
  %27 = zext i8 %26 to i32
  %28 = icmp eq i32 %27, 2
  br i1 %28, label %29, label %32

29:                                               ; preds = %23
  %30 = load ptr, ptr %4, align 8, !tbaa !29
  %31 = getelementptr inbounds nuw %struct.MJpegDecodeContext, ptr %30, i32 0, i32 72
  store i32 0, ptr %31, align 16, !tbaa !62
  br label %32

32:                                               ; preds = %29, %23, %20
  %33 = load ptr, ptr %4, align 8, !tbaa !29
  %34 = getelementptr inbounds nuw %struct.MJpegDecodeContext, ptr %33, i32 0, i32 1
  %35 = load ptr, ptr %34, align 8, !tbaa !44
  %36 = getelementptr inbounds nuw %struct.AVCodecContext, ptr %35, i32 0, i32 103
  %37 = load i32, ptr %36, align 4, !tbaa !97
  %38 = and i32 %37, 1
  %39 = icmp ne i32 %38, 0
  br i1 %39, label %40, label %55

40:                                               ; preds = %32
  %41 = load ptr, ptr %4, align 8, !tbaa !29
  %42 = getelementptr inbounds nuw %struct.MJpegDecodeContext, ptr %41, i32 0, i32 1
  %43 = load ptr, ptr %42, align 8, !tbaa !44
  %44 = load i32, ptr %6, align 4, !tbaa !57
  %45 = load i32, ptr %6, align 4, !tbaa !57
  %46 = icmp sgt i32 %45, 14
  br i1 %46, label %47, label %52

47:                                               ; preds = %40
  %48 = load ptr, ptr %5, align 8, !tbaa !85
  %49 = getelementptr inbounds i8, ptr %48, i64 12
  %50 = load i8, ptr %49, align 1, !tbaa !64
  %51 = zext i8 %50 to i32
  br label %53

52:                                               ; preds = %40
  br label %53

53:                                               ; preds = %52, %47
  %54 = phi i32 [ %51, %47 ], [ -1, %52 ]
  call void (ptr, i32, ptr, ...) @av_log(ptr noundef %43, i32 noundef 32, ptr noundef @.str.86, i32 noundef %44, i32 noundef %54)
  br label %55

55:                                               ; preds = %53, %32
  ret void
}