; Function Attrs: nounwind uwtable
define internal fastcc void @parse_avid(ptr noundef captures(none) initializes((2136, 2140)) %0, ptr noundef readonly captures(none) %1, i32 noundef range(i32 2, -2147483648) %2) unnamed_addr #3 {
  %4 = getelementptr inbounds nuw i8, ptr %0, i64 2136
  store i32 1, ptr %4, align 8, !tbaa !87
  %5 = icmp samesign ugt i32 %2, 14
  br i1 %5, label %6, label %.critedge.thread

6:                                                ; preds = %3
  %7 = getelementptr inbounds nuw i8, ptr %1, i64 12
  %8 = load i8, ptr %7, align 1, !tbaa !67
  %9 = icmp eq i8 %8, 1
  br i1 %9, label %10, label %12

10:                                               ; preds = %6
  %11 = getelementptr inbounds nuw i8, ptr %0, i64 2144
  store i32 1, ptr %11, align 16, !tbaa !63
  %.pr = load i8, ptr %7, align 1, !tbaa !67
  br label %12

12:                                               ; preds = %6, %10
  %13 = phi i8 [ %8, %6 ], [ %.pr, %10 ]
  %14 = icmp eq i8 %13, 2
  br i1 %14, label %15, label %.critedge

15:                                               ; preds = %12
  %16 = getelementptr inbounds nuw i8, ptr %0, i64 2144
  store i32 0, ptr %16, align 16, !tbaa !63
  br label %.critedge

.critedge:                                        ; preds = %15, %12
  %17 = getelementptr inbounds nuw i8, ptr %0, i64 8
  %18 = load ptr, ptr %17, align 8, !tbaa !41
  %19 = getelementptr inbounds nuw i8, ptr %18, i64 524
  %20 = load i32, ptr %19, align 4, !tbaa !88
  %21 = and i32 %20, 1
  %.not = icmp eq i32 %21, 0
  br i1 %.not, label %32, label %27

.critedge.thread:                                 ; preds = %3
  %22 = getelementptr inbounds nuw i8, ptr %0, i64 8
  %23 = load ptr, ptr %22, align 8, !tbaa !41
  %24 = getelementptr inbounds nuw i8, ptr %23, i64 524
  %25 = load i32, ptr %24, align 4, !tbaa !88
  %26 = and i32 %25, 1
  %.not11 = icmp eq i32 %26, 0
  br i1 %.not11, label %32, label %.thread

27:                                               ; preds = %.critedge
  %28 = load i8, ptr %7, align 1, !tbaa !67
  %29 = zext i8 %28 to i32
  br label %.thread

.thread:                                          ; preds = %.critedge.thread, %27
  %30 = phi ptr [ %18, %27 ], [ %23, %.critedge.thread ]
  %31 = phi i32 [ %29, %27 ], [ -1, %.critedge.thread ]
  tail call void (ptr, i32, ptr, ...) @av_log(ptr noundef nonnull %30, i32 noundef 32, ptr noundef nonnull @.str.86, i32 noundef %2, i32 noundef %31) #14
  br label %32

32:                                               ; preds = %.critedge.thread, %.thread, %.critedge
  ret void
}